target datalayout = "e-m:e-p270:32:32-p271:32:32-p272:64:64-i64:64-i128:128-f80:128-n8:16:32:64-S128"
target triple = "x86_64-pc-linux-gnu"

%"class.smt::quantifier_manager" = type <{ ptr, i32, i8, [3 x i8] }>
%class.vector.337 = type { ptr }

; Function Attrs: mustprogress uwtable
define hidden noundef zeroext i1 @_ZN3smt18quantifier_manager12add_instanceEP10quantifierP3appjPKPNS_5enodeEP4exprjjjR6vectorISt5tupleIJS6_S6_EELb1EjE(ptr noundef nonnull align 8 dereferenceable(13) %0, ptr noundef %1, ptr noundef %2, i32 noundef %3, ptr noundef %4, ptr noundef %5, i32 noundef %6, i32 noundef %7, i32 noundef %8, ptr noundef nonnull align 8 dereferenceable(8) %9) #6 align 2 {
  %11 = alloca ptr, align 8
  %12 = alloca ptr, align 8
  %13 = alloca ptr, align 8
  %14 = alloca i32, align 4
  %15 = alloca ptr, align 8
  %16 = alloca ptr, align 8
  %17 = alloca i32, align 4
  %18 = alloca i32, align 4
  %19 = alloca i32, align 4
  %20 = alloca ptr, align 8
  store ptr %0, ptr %11, align 8, !tbaa !87
  store ptr %1, ptr %12, align 8, !tbaa !210
  store ptr %2, ptr %13, align 8, !tbaa !222
  store i32 %3, ptr %14, align 4, !tbaa !8
  store ptr %4, ptr %15, align 8, !tbaa !58
  store ptr %5, ptr %16, align 8, !tbaa !79
  store i32 %6, ptr %17, align 4, !tbaa !8
  store i32 %7, ptr %18, align 4, !tbaa !8
  store i32 %8, ptr %19, align 4, !tbaa !8
  store ptr %9, ptr %20, align 8, !tbaa !223
  %21 = load ptr, ptr %11, align 8
  %22 = getelementptr inbounds nuw %"class.smt::quantifier_manager", ptr %21, i32 0, i32 0
  %23 = load ptr, ptr %22, align 8, !tbaa !93
  %24 = load ptr, ptr %12, align 8, !tbaa !210
  %25 = load ptr, ptr %13, align 8, !tbaa !222
  %26 = load i32, ptr %14, align 4, !tbaa !8
  %27 = load ptr, ptr %15, align 8, !tbaa !58
  %28 = load ptr, ptr %16, align 8, !tbaa !79
  %29 = load i32, ptr %17, align 4, !tbaa !8
  %30 = load i32, ptr %18, align 4, !tbaa !8
  %31 = load i32, ptr %17, align 4, !tbaa !8
  %32 = load ptr, ptr %20, align 8, !tbaa !223
  %33 = call noundef zeroext i1 @_ZN3smt18quantifier_manager3imp12add_instanceEP10quantifierP3appjPKPNS_5enodeEP4exprjjjR6vectorISt5tupleIJS7_S7_EELb1EjE(ptr noundef nonnull align 8 dereferenceable(1172) %23, ptr noundef %24, ptr noundef %25, i32 noundef %26, ptr noundef %27, ptr noundef %28, i32 noundef %29, i32 noundef %30, i32 noundef %31, ptr noundef nonnull align 8 dereferenceable(8) %32)
  ret i1 %33
}

; Function Attrs: mustprogress nounwind uwtable
define linkonce_odr hidden void @_ZN6vectorISt5tupleIJPN3smt5enodeES3_EELb1EjEC2Ev(ptr noundef nonnull align 8 dereferenceable(8) %0) unnamed_addr #4 comdat align 2 {
  %2 = alloca ptr, align 8
  store ptr %0, ptr %2, align 8, !tbaa !223
  %3 = load ptr, ptr %2, align 8
  %4 = getelementptr inbounds nuw %class.vector.337, ptr %3, i32 0, i32 0
  store ptr null, ptr %4, align 8, !tbaa !227
  ret void
}

; Function Attrs: mustprogress uwtable
define hidden noundef zeroext i1 @_ZN3smt18quantifier_manager12add_instanceEP10quantifierjPKPNS_5enodeEP4exprj(ptr noundef nonnull align 8 dereferenceable(13) %0, ptr noundef %1, i32 noundef %2, ptr noundef %3, ptr noundef %4, i32 noundef %5) #6 align 2 personality ptr @__gxx_personality_v0 {
  %7 = alloca ptr, align 8
  %8 = alloca ptr, align 8
  %9 = alloca i32, align 4
  %10 = alloca ptr, align 8
  %11 = alloca ptr, align 8
  %12 = alloca i32, align 4
  %13 = alloca %class.vector.337, align 8
  %14 = alloca ptr, align 8
  %15 = alloca i32, align 4
  store ptr %0, ptr %7, align 8, !tbaa !87
  store ptr %1, ptr %8, align 8, !tbaa !210
  store i32 %2, ptr %9, align 4, !tbaa !8
  store ptr %3, ptr %10, align 8, !tbaa !58
  store ptr %4, ptr %11, align 8, !tbaa !79
  store i32 %5, ptr %12, align 4, !tbaa !8
  %16 = load ptr, ptr %7, align 8
  call void @llvm.lifetime.start.p0(i64 8, ptr %13) #3
  call void @_ZN6vectorISt5tupleIJPN3smt5enodeES3_EELb1EjEC2Ev(ptr noundef nonnull align 8 dereferenceable(8) %13) #3
  %17 = load ptr, ptr %8, align 8, !tbaa !210
  %18 = load i32, ptr %9, align 4, !tbaa !8
  %19 = load ptr, ptr %10, align 8, !tbaa !58
  %20 = load ptr, ptr %11, align 8, !tbaa !79
  %21 = load i32, ptr %12, align 4, !tbaa !8
  %22 = load i32, ptr %12, align 4, !tbaa !8
  %23 = load i32, ptr %12, align 4, !tbaa !8
  %24 = invoke noundef zeroext i1 @_ZN3smt18quantifier_manager12add_instanceEP10quantifierP3appjPKPNS_5enodeEP4exprjjjR6vectorISt5tupleIJS6_S6_EELb1EjE(ptr noundef nonnull align 8 dereferenceable(13) %16, ptr noundef %17, ptr noundef null, i32 noundef %18, ptr noundef %19, ptr noundef %20, i32 noundef %21, i32 noundef %22, i32 noundef %23, ptr noundef nonnull align 8 dereferenceable(8) %13)
          to label %25 unwind label %26

25:                                               ; preds = %6
  call void @_ZN6vectorISt5tupleIJPN3smt5enodeES3_EELb1EjED2Ev(ptr noundef nonnull align 8 dereferenceable(8) %13) #3
  call void @llvm.lifetime.end.p0(i64 8, ptr %13) #3
  ret i1 %24

26:                                               ; preds = %6
  %27 = landingpad { ptr, i32 }
          cleanup
  %28 = extractvalue { ptr, i32 } %27, 0
  store ptr %28, ptr %14, align 8
  %29 = extractvalue { ptr, i32 } %27, 1
  store i32 %29, ptr %15, align 4
  call void @_ZN6vectorISt5tupleIJPN3smt5enodeES3_EELb1EjED2Ev(ptr noundef nonnull align 8 dereferenceable(8) %13) #3
  call void @llvm.lifetime.end.p0(i64 8, ptr %13) #3
  br label %30

30:                                               ; preds = %26
  %31 = load ptr, ptr %14, align 8
  %32 = load i32, ptr %15, align 4
  %33 = insertvalue { ptr, i32 } poison, ptr %31, 0
  %34 = insertvalue { ptr, i32 } %33, i32 %32, 1
  resume { ptr, i32 } %34
}