; Function Attrs: mustprogress uwtable
define hidden noundef zeroext i1 @_ZN3smt18quantifier_manager12add_instanceEP10quantifierjPKPNS_5enodeEP4exprj(ptr noundef nonnull readonly align 8 captures(none) dereferenceable(13) %0, ptr noundef %1, i32 noundef %2, ptr noundef %3, ptr noundef %4, i32 noundef %5) local_unnamed_addr #4 align 2 personality ptr @__gxx_personality_v0 {
  %7 = alloca %class.vector.337, align 8
  call void @llvm.lifetime.start.p0(i64 8, ptr nonnull %7) #22
  store ptr null, ptr %7, align 8, !tbaa !691
  %8 = load ptr, ptr %0, align 8, !tbaa !82
  %9 = invoke noundef zeroext i1 @_ZN3smt18quantifier_manager3imp12add_instanceEP10quantifierP3appjPKPNS_5enodeEP4exprjjjR6vectorISt5tupleIJS7_S7_EELb1EjE(ptr noundef nonnull align 8 dereferenceable(1172) %8, ptr noundef %1, ptr noundef null, i32 noundef %2, ptr noundef %3, ptr noundef %4, i32 noundef %5, i32 noundef %5, i32 noundef %5, ptr noundef nonnull align 8 dereferenceable(8) %7)
          to label %_ZN3smt18quantifier_manager12add_instanceEP10quantifierP3appjPKPNS_5enodeEP4exprjjjR6vectorISt5tupleIJS6_S6_EELb1EjE.exit unwind label %16

_ZN3smt18quantifier_manager12add_instanceEP10quantifierP3appjPKPNS_5enodeEP4exprjjjR6vectorISt5tupleIJS6_S6_EELb1EjE.exit: ; preds = %6
  %10 = load ptr, ptr %7, align 8, !tbaa !691
  %.not.i.i = icmp eq ptr %10, null
  br i1 %.not.i.i, label %_ZN6vectorISt5tupleIJPN3smt5enodeES3_EELb1EjED2Ev.exit, label %11

11:                                               ; preds = %_ZN3smt18quantifier_manager12add_instanceEP10quantifierP3appjPKPNS_5enodeEP4exprjjjR6vectorISt5tupleIJS6_S6_EELb1EjE.exit
  %12 = getelementptr inbounds i8, ptr %10, i64 -8
  invoke void @_ZN6memory10deallocateEPv(ptr noundef nonnull %12)
          to label %_ZN6vectorISt5tupleIJPN3smt5enodeES3_EELb1EjED2Ev.exit unwind label %13

13:                                               ; preds = %11
  %14 = landingpad { ptr, i32 }
          catch ptr null
  %15 = extractvalue { ptr, i32 } %14, 0
  call void @__clang_call_terminate(ptr %15) #24
  unreachable

_ZN6vectorISt5tupleIJPN3smt5enodeES3_EELb1EjED2Ev.exit: ; preds = %_ZN3smt18quantifier_manager12add_instanceEP10quantifierP3appjPKPNS_5enodeEP4exprjjjR6vectorISt5tupleIJS6_S6_EELb1EjE.exit, %11
  call void @llvm.lifetime.end.p0(i64 8, ptr nonnull %7) #22
  ret i1 %9

16:                                               ; preds = %6
  %17 = landingpad { ptr, i32 }
          cleanup
  call void @_ZN6vectorISt5tupleIJPN3smt5enodeES3_EELb1EjED2Ev(ptr noundef nonnull align 8 dereferenceable(8) %7) #22
  call void @llvm.lifetime.end.p0(i64 8, ptr nonnull %7) #22
  resume { ptr, i32 } %17
}